; Function Attrs: nounwind uwtable
define dso_local ptr @slurm_get_preempt_type() local_unnamed_addr #1 {
  %1 = load ptr, ptr @slurmdbd_conf, align 8
  %.not = icmp eq ptr %1, null
  br i1 %.not, label %2, label %7

2:                                                ; preds = %0
  %3 = tail call ptr @slurm_conf_lock() #19
  %4 = getelementptr inbounds nuw i8, ptr %3, i64 808
  %5 = load ptr, ptr %4, align 8
  %6 = tail call ptr @xstrdup(ptr noundef %5) #19
  tail call void @slurm_conf_unlock() #19
  br label %7

7:                                                ; preds = %0, %2
  %.0 = phi ptr [ null, %0 ], [ %6, %2 ]
  ret ptr %.0
}